target datalayout = "e-m:e-p270:32:32-p271:32:32-p272:64:64-i64:64-i128:128-f80:128-n8:16:32:64-S128"
target triple = "x86_64-pc-linux-gnu"

%"class.pybind11::object" = type { %"class.pybind11::handle" }
%"class.pybind11::handle" = type { ptr }
%"class.pybind11::module_" = type { %"class.pybind11::object" }
%"class.pybind11::detail::accessor" = type { [8 x i8], %"class.pybind11::handle", ptr, %"class.pybind11::object" }

@.str = private unnamed_addr constant [5 x i8] c"core\00", align 1
@.str.3 = private unnamed_addr constant [4 x i8] c"nns\00", align 1

; Function Attrs: mustprogress nounwind ssp uwtable
define linkonce_odr hidden void @_ZN8pybind116handleC2Ev(ptr noundef nonnull align 8 dereferenceable(8) %0) unnamed_addr #5 comdat align 2 {
  %2 = alloca ptr, align 8
  store ptr %0, ptr %2, align 8, !tbaa !163
  %3 = load ptr, ptr %2, align 8
  %4 = getelementptr inbounds nuw %"class.pybind11::handle", ptr %3, i32 0, i32 0
  store ptr null, ptr %4, align 8, !tbaa !129
  ret void
}

; Function Attrs: mustprogress nounwind ssp uwtable
define linkonce_odr hidden void @_ZN8pybind116objectC2Ev(ptr noundef nonnull align 8 dereferenceable(8) %0) unnamed_addr #5 comdat align 2 {
  %2 = alloca ptr, align 8
  store ptr %0, ptr %2, align 8, !tbaa !130
  %3 = load ptr, ptr %2, align 8
  call void @_ZN8pybind116handleC2Ev(ptr noundef nonnull align 8 dereferenceable(8) %3) #25
  ret void
}

; Function Attrs: mustprogress nounwind ssp uwtable
define linkonce_odr hidden void @_ZN8pybind116detail8accessorINS0_17accessor_policies8str_attrEEC2ENS_6handleEPKc(ptr noundef nonnull align 8 dereferenceable(32) %0, ptr %1, ptr noundef %2) unnamed_addr #5 comdat align 2 {
  %4 = alloca %"class.pybind11::handle", align 8
  %5 = alloca ptr, align 8
  %6 = alloca ptr, align 8
  %7 = getelementptr inbounds nuw %"class.pybind11::handle", ptr %4, i32 0, i32 0
  store ptr %1, ptr %7, align 8
  store ptr %0, ptr %5, align 8, !tbaa !135
  store ptr %2, ptr %6, align 8, !tbaa !128
  %8 = load ptr, ptr %5, align 8
  %9 = getelementptr inbounds nuw %"class.pybind11::detail::accessor", ptr %8, i32 0, i32 1
  call void @llvm.memcpy.p0.p0.i64(ptr align 8 %9, ptr align 8 %4, i64 8, i1 false)
  %10 = getelementptr inbounds nuw %"class.pybind11::detail::accessor", ptr %8, i32 0, i32 2
  %11 = load ptr, ptr %6, align 8, !tbaa !128
  store ptr %11, ptr %10, align 8, !tbaa !1626
  %12 = getelementptr inbounds nuw %"class.pybind11::detail::accessor", ptr %8, i32 0, i32 3
  call void @_ZN8pybind116objectC2Ev(ptr noundef nonnull align 8 dereferenceable(8) %12) #25
  ret void
}

; Function Attrs: mustprogress nounwind ssp uwtable
define linkonce_odr hidden noundef nonnull align 8 dereferenceable(8) ptr @_ZNK8pybind116detail10object_apiINS_6handleEE7derivedEv(ptr noundef nonnull align 1 dereferenceable(1) %0) #5 comdat align 2 !type !911 {
  %2 = alloca ptr, align 8
  store ptr %0, ptr %2, align 8, !tbaa !133
  %3 = load ptr, ptr %2, align 8
  ret ptr %3
}

; Function Attrs: mustprogress ssp uwtable
define linkonce_odr hidden void @_ZNK8pybind116detail10object_apiINS_6handleEE4attrEPKc(ptr dead_on_unwind noalias writable sret(%"class.pybind11::detail::accessor") align 8 %0, ptr noundef nonnull align 1 dereferenceable(1) %1, ptr noundef %2) #4 comdat align 2 !type !132 {
  %4 = alloca ptr, align 8
  %5 = alloca ptr, align 8
  %6 = alloca ptr, align 8
  %7 = alloca %"class.pybind11::handle", align 8
  store ptr %0, ptr %4, align 8
  store ptr %1, ptr %5, align 8, !tbaa !133
  store ptr %2, ptr %6, align 8, !tbaa !128
  %8 = load ptr, ptr %5, align 8
  %9 = call noundef nonnull align 8 dereferenceable(8) ptr @_ZNK8pybind116detail10object_apiINS_6handleEE7derivedEv(ptr noundef nonnull align 1 dereferenceable(1) %8)
  call void @llvm.memcpy.p0.p0.i64(ptr align 8 %7, ptr align 8 %9, i64 8, i1 false)
  %10 = load ptr, ptr %6, align 8, !tbaa !128
  %11 = getelementptr inbounds nuw %"class.pybind11::handle", ptr %7, i32 0, i32 0
  %12 = load ptr, ptr %11, align 8
  call void @_ZN8pybind116detail8accessorINS0_17accessor_policies8str_attrEEC2ENS_6handleEPKc(ptr noundef nonnull align 8 dereferenceable(32) %0, ptr %12, ptr noundef %10)
  ret void
}

; Function Attrs: mustprogress ssp uwtable
define hidden void @_ZN6open3d4core23pybind_core_definitionsERN8pybind117module_E(ptr noundef nonnull align 8 dereferenceable(8) %0) #4 personality ptr @__gxx_personality_v0 {
  %2 = alloca ptr, align 8
  %3 = alloca %"class.pybind11::module_", align 8
  %4 = alloca %"class.pybind11::detail::accessor", align 8
  %5 = alloca ptr, align 8
  %6 = alloca i32, align 4
  %7 = alloca %"class.pybind11::module_", align 8
  %8 = alloca %"class.pybind11::detail::accessor", align 8
  store ptr %0, ptr %2, align 8, !tbaa !125
  call void @llvm.lifetime.start.p0(i64 8, ptr %3) #25
  call void @llvm.lifetime.start.p0(i64 32, ptr %4) #25
  %9 = load ptr, ptr %2, align 8, !tbaa !125
  call void @_ZNK8pybind116detail10object_apiINS_6handleEE4attrEPKc(ptr dead_on_unwind writable sret(%"class.pybind11::detail::accessor") align 8 %4, ptr noundef nonnull align 1 dereferenceable(1) %9, ptr noundef @.str)
  invoke void @_ZN8pybind117module_C2INS_6detail17accessor_policies8str_attrEEERKNS2_8accessorIT_EE(ptr noundef nonnull align 8 dereferenceable(8) %3, ptr noundef nonnull align 8 dereferenceable(32) %4)
          to label %10 unwind label %26

10:                                               ; preds = %1
  call void @_ZN8pybind116detail8accessorINS0_17accessor_policies8str_attrEED2Ev(ptr noundef nonnull align 8 dereferenceable(32) %4) #25
  call void @llvm.lifetime.end.p0(i64 32, ptr %4) #25
  invoke void @_ZN6open3d4core29pybind_cuda_utils_definitionsERN8pybind117module_E(ptr noundef nonnull align 8 dereferenceable(8) %3)
          to label %11 unwind label %30

11:                                               ; preds = %10
  invoke void @_ZN6open3d4core29pybind_sycl_utils_definitionsERN8pybind117module_E(ptr noundef nonnull align 8 dereferenceable(8) %3)
          to label %12 unwind label %30

12:                                               ; preds = %11
  invoke void @_ZN6open3d4core29pybind_core_dtype_definitionsERN8pybind117module_E(ptr noundef nonnull align 8 dereferenceable(8) %3)
          to label %13 unwind label %30

13:                                               ; preds = %12
  invoke void @_ZN6open3d4core30pybind_core_device_definitionsERN8pybind117module_E(ptr noundef nonnull align 8 dereferenceable(8) %3)
          to label %14 unwind label %30

14:                                               ; preds = %13
  invoke void @_ZN6open3d4core35pybind_core_size_vector_definitionsERN8pybind117module_E(ptr noundef nonnull align 8 dereferenceable(8) %3)
          to label %15 unwind label %30

15:                                               ; preds = %14
  invoke void @_ZN6open3d4core30pybind_core_tensor_definitionsERN8pybind117module_E(ptr noundef nonnull align 8 dereferenceable(8) %3)
          to label %16 unwind label %30

16:                                               ; preds = %15
  invoke void @_ZN6open3d4core39pybind_core_tensor_function_definitionsERN8pybind117module_E(ptr noundef nonnull align 8 dereferenceable(8) %3)
          to label %17 unwind label %30

17:                                               ; preds = %16
  invoke void @_ZN6open3d4core30pybind_core_linalg_definitionsERN8pybind117module_E(ptr noundef nonnull align 8 dereferenceable(8) %3)
          to label %18 unwind label %30

18:                                               ; preds = %17
  invoke void @_ZN6open3d4core30pybind_core_kernel_definitionsERN8pybind117module_E(ptr noundef nonnull align 8 dereferenceable(8) %3)
          to label %19 unwind label %30

19:                                               ; preds = %18
  invoke void @_ZN6open3d4core31pybind_core_hashmap_definitionsERN8pybind117module_E(ptr noundef nonnull align 8 dereferenceable(8) %3)
          to label %20 unwind label %30

20:                                               ; preds = %19
  invoke void @_ZN6open3d4core31pybind_core_hashset_definitionsERN8pybind117module_E(ptr noundef nonnull align 8 dereferenceable(8) %3)
          to label %21 unwind label %30

21:                                               ; preds = %20
  invoke void @_ZN6open3d4core30pybind_core_scalar_definitionsERN8pybind117module_E(ptr noundef nonnull align 8 dereferenceable(8) %3)
          to label %22 unwind label %30

22:                                               ; preds = %21
  call void @llvm.lifetime.start.p0(i64 8, ptr %7) #25
  call void @llvm.lifetime.start.p0(i64 32, ptr %8) #25
  invoke void @_ZNK8pybind116detail10object_apiINS_6handleEE4attrEPKc(ptr dead_on_unwind writable sret(%"class.pybind11::detail::accessor") align 8 %8, ptr noundef nonnull align 1 dereferenceable(1) %3, ptr noundef @.str.3)
          to label %23 unwind label %34

23:                                               ; preds = %22
  invoke void @_ZN8pybind117module_C2INS_6detail17accessor_policies8str_attrEEERKNS2_8accessorIT_EE(ptr noundef nonnull align 8 dereferenceable(8) %7, ptr noundef nonnull align 8 dereferenceable(32) %8)
          to label %24 unwind label %38

24:                                               ; preds = %23
  call void @_ZN8pybind116detail8accessorINS0_17accessor_policies8str_attrEED2Ev(ptr noundef nonnull align 8 dereferenceable(32) %8) #25
  call void @llvm.lifetime.end.p0(i64 32, ptr %8) #25
  invoke void @_ZN6open3d4core3nns27pybind_core_nns_definitionsERN8pybind117module_E(ptr noundef nonnull align 8 dereferenceable(8) %7)
          to label %25 unwind label %43

25:                                               ; preds = %24
  call void @_ZN8pybind116objectD2Ev(ptr noundef nonnull align 8 dereferenceable(8) %7) #25
  call void @llvm.lifetime.end.p0(i64 8, ptr %7) #25
  call void @_ZN8pybind116objectD2Ev(ptr noundef nonnull align 8 dereferenceable(8) %3) #25
  call void @llvm.lifetime.end.p0(i64 8, ptr %3) #25
  ret void

26:                                               ; preds = %1
  %27 = landingpad { ptr, i32 }
          cleanup
  %28 = extractvalue { ptr, i32 } %27, 0
  store ptr %28, ptr %5, align 8
  %29 = extractvalue { ptr, i32 } %27, 1
  store i32 %29, ptr %6, align 4
  call void @_ZN8pybind116detail8accessorINS0_17accessor_policies8str_attrEED2Ev(ptr noundef nonnull align 8 dereferenceable(32) %4) #25
  call void @llvm.lifetime.end.p0(i64 32, ptr %4) #25
  br label %49

30:                                               ; preds = %21, %20, %19, %18, %17, %16, %15, %14, %13, %12, %11, %10
  %31 = landingpad { ptr, i32 }
          cleanup
  %32 = extractvalue { ptr, i32 } %31, 0
  store ptr %32, ptr %5, align 8
  %33 = extractvalue { ptr, i32 } %31, 1
  store i32 %33, ptr %6, align 4
  br label %48

34:                                               ; preds = %22
  %35 = landingpad { ptr, i32 }
          cleanup
  %36 = extractvalue { ptr, i32 } %35, 0
  store ptr %36, ptr %5, align 8
  %37 = extractvalue { ptr, i32 } %35, 1
  store i32 %37, ptr %6, align 4
  br label %42

38:                                               ; preds = %23
  %39 = landingpad { ptr, i32 }
          cleanup
  %40 = extractvalue { ptr, i32 } %39, 0
  store ptr %40, ptr %5, align 8
  %41 = extractvalue { ptr, i32 } %39, 1
  store i32 %41, ptr %6, align 4
  call void @_ZN8pybind116detail8accessorINS0_17accessor_policies8str_attrEED2Ev(ptr noundef nonnull align 8 dereferenceable(32) %8) #25
  br label %42

42:                                               ; preds = %38, %34
  call void @llvm.lifetime.end.p0(i64 32, ptr %8) #25
  br label %47

43:                                               ; preds = %24
  %44 = landingpad { ptr, i32 }
          cleanup
  %45 = extractvalue { ptr, i32 } %44, 0
  store ptr %45, ptr %5, align 8
  %46 = extractvalue { ptr, i32 } %44, 1
  store i32 %46, ptr %6, align 4
  call void @_ZN8pybind116objectD2Ev(ptr noundef nonnull align 8 dereferenceable(8) %7) #25
  br label %47

47:                                               ; preds = %43, %42
  call void @llvm.lifetime.end.p0(i64 8, ptr %7) #25
  br label %48

48:                                               ; preds = %47, %30
  call void @_ZN8pybind116objectD2Ev(ptr noundef nonnull align 8 dereferenceable(8) %3) #25
  br label %49

49:                                               ; preds = %48, %26
  call void @llvm.lifetime.end.p0(i64 8, ptr %3) #25
  br label %50

50:                                               ; preds = %49
  %51 = load ptr, ptr %5, align 8
  %52 = load i32, ptr %6, align 4
  %53 = insertvalue { ptr, i32 } poison, ptr %51, 0
  %54 = insertvalue { ptr, i32 } %53, i32 %52, 1
  resume { ptr, i32 } %54
}