; Function Attrs: mustprogress ssp uwtable
define hidden void @_ZN6open3d4core23pybind_core_definitionsERN8pybind117module_E(ptr noundef nonnull readonly align 8 captures(none) dereferenceable(8) %0) local_unnamed_addr #5 personality ptr @__gxx_personality_v0 {
  %2 = alloca %"class.pybind11::module_", align 8
  %3 = alloca %"class.pybind11::detail::accessor", align 8
  %4 = alloca %"class.pybind11::module_", align 8
  %5 = alloca %"class.pybind11::detail::accessor", align 8
  call void @llvm.lifetime.start.p0(i64 8, ptr nonnull %2) #28
  call void @llvm.lifetime.start.p0(i64 32, ptr nonnull %3) #28
  tail call void @llvm.experimental.noalias.scope.decl(metadata !132)
  %.sroa.0.0.copyload.i = load ptr, ptr %0, align 8, !noalias !132
  %6 = getelementptr inbounds nuw i8, ptr %3, i64 8
  store ptr %.sroa.0.0.copyload.i, ptr %6, align 8, !alias.scope !132
  %7 = getelementptr inbounds nuw i8, ptr %3, i64 16
  store ptr @.str, ptr %7, align 8, !tbaa !127, !alias.scope !132
  %8 = getelementptr inbounds nuw i8, ptr %3, i64 24
  store ptr null, ptr %8, align 8, !tbaa !112, !alias.scope !132
  invoke void @_ZN8pybind117module_C2INS_6detail17accessor_policies8str_attrEEERKNS2_8accessorIT_EE(ptr noundef nonnull align 8 dereferenceable(8) %2, ptr noundef nonnull align 8 dereferenceable(32) %3)
          to label %9 unwind label %71

9:                                                ; preds = %1
  %10 = load ptr, ptr %8, align 8, !tbaa !112
  %.not.i.i.i.i = icmp eq ptr %10, null
  br i1 %.not.i.i.i.i, label %_ZN8pybind116detail8accessorINS0_17accessor_policies8str_attrEED2Ev.exit, label %11

11:                                               ; preds = %9
  %12 = load i64, ptr %10, align 8, !tbaa !111
  %13 = and i64 %12, 2147483648
  %.not2.i.i.i.i = icmp eq i64 %13, 0
  br i1 %.not2.i.i.i.i, label %14, label %_ZN8pybind116detail8accessorINS0_17accessor_policies8str_attrEED2Ev.exit

14:                                               ; preds = %11
  %15 = add nsw i64 %12, -1
  store i64 %15, ptr %10, align 8, !tbaa !111
  %16 = icmp eq i64 %15, 0
  br i1 %16, label %17, label %_ZN8pybind116detail8accessorINS0_17accessor_policies8str_attrEED2Ev.exit

17:                                               ; preds = %14
  invoke void @_Py_Dealloc(ptr noundef nonnull %10)
          to label %_ZN8pybind116detail8accessorINS0_17accessor_policies8str_attrEED2Ev.exit unwind label %18

18:                                               ; preds = %17
  %19 = landingpad { ptr, i32 }
          catch ptr null
  %20 = extractvalue { ptr, i32 } %19, 0
  call void @__clang_call_terminate(ptr %20) #29
  unreachable

_ZN8pybind116detail8accessorINS0_17accessor_policies8str_attrEED2Ev.exit: ; preds = %9, %11, %14, %17
  call void @llvm.lifetime.end.p0(i64 32, ptr nonnull %3) #28
  invoke void @_ZN6open3d4core29pybind_cuda_utils_definitionsERN8pybind117module_E(ptr noundef nonnull align 8 dereferenceable(8) %2)
          to label %21 unwind label %73

21:                                               ; preds = %_ZN8pybind116detail8accessorINS0_17accessor_policies8str_attrEED2Ev.exit
  invoke void @_ZN6open3d4core29pybind_sycl_utils_definitionsERN8pybind117module_E(ptr noundef nonnull align 8 dereferenceable(8) %2)
          to label %22 unwind label %73

22:                                               ; preds = %21
  invoke void @_ZN6open3d4core29pybind_core_dtype_definitionsERN8pybind117module_E(ptr noundef nonnull align 8 dereferenceable(8) %2)
          to label %23 unwind label %73

23:                                               ; preds = %22
  invoke void @_ZN6open3d4core30pybind_core_device_definitionsERN8pybind117module_E(ptr noundef nonnull align 8 dereferenceable(8) %2)
          to label %24 unwind label %73

24:                                               ; preds = %23
  invoke void @_ZN6open3d4core35pybind_core_size_vector_definitionsERN8pybind117module_E(ptr noundef nonnull align 8 dereferenceable(8) %2)
          to label %25 unwind label %73

25:                                               ; preds = %24
  invoke void @_ZN6open3d4core30pybind_core_tensor_definitionsERN8pybind117module_E(ptr noundef nonnull align 8 dereferenceable(8) %2)
          to label %26 unwind label %73

26:                                               ; preds = %25
  invoke void @_ZN6open3d4core39pybind_core_tensor_function_definitionsERN8pybind117module_E(ptr noundef nonnull align 8 dereferenceable(8) %2)
          to label %27 unwind label %73

27:                                               ; preds = %26
  invoke void @_ZN6open3d4core30pybind_core_linalg_definitionsERN8pybind117module_E(ptr noundef nonnull align 8 dereferenceable(8) %2)
          to label %28 unwind label %73

28:                                               ; preds = %27
  invoke void @_ZN6open3d4core30pybind_core_kernel_definitionsERN8pybind117module_E(ptr noundef nonnull align 8 dereferenceable(8) %2)
          to label %29 unwind label %73

29:                                               ; preds = %28
  invoke void @_ZN6open3d4core31pybind_core_hashmap_definitionsERN8pybind117module_E(ptr noundef nonnull align 8 dereferenceable(8) %2)
          to label %30 unwind label %73

30:                                               ; preds = %29
  invoke void @_ZN6open3d4core31pybind_core_hashset_definitionsERN8pybind117module_E(ptr noundef nonnull align 8 dereferenceable(8) %2)
          to label %31 unwind label %73

31:                                               ; preds = %30
  invoke void @_ZN6open3d4core30pybind_core_scalar_definitionsERN8pybind117module_E(ptr noundef nonnull align 8 dereferenceable(8) %2)
          to label %32 unwind label %73

32:                                               ; preds = %31
  call void @llvm.lifetime.start.p0(i64 8, ptr nonnull %4) #28
  call void @llvm.lifetime.start.p0(i64 32, ptr nonnull %5) #28
  call void @llvm.experimental.noalias.scope.decl(metadata !135)
  %.sroa.0.0.copyload.i11 = load ptr, ptr %2, align 8, !noalias !135
  %33 = getelementptr inbounds nuw i8, ptr %5, i64 8
  store ptr %.sroa.0.0.copyload.i11, ptr %33, align 8, !alias.scope !135
  %34 = getelementptr inbounds nuw i8, ptr %5, i64 16
  store ptr @.str.3, ptr %34, align 8, !tbaa !127, !alias.scope !135
  %35 = getelementptr inbounds nuw i8, ptr %5, i64 24
  store ptr null, ptr %35, align 8, !tbaa !112, !alias.scope !135
  invoke void @_ZN8pybind117module_C2INS_6detail17accessor_policies8str_attrEEERKNS2_8accessorIT_EE(ptr noundef nonnull align 8 dereferenceable(8) %4, ptr noundef nonnull align 8 dereferenceable(32) %5)
          to label %36 unwind label %75

36:                                               ; preds = %32
  %37 = load ptr, ptr %35, align 8, !tbaa !112
  %.not.i.i.i.i12 = icmp eq ptr %37, null
  br i1 %.not.i.i.i.i12, label %_ZN8pybind116detail8accessorINS0_17accessor_policies8str_attrEED2Ev.exit14, label %38

38:                                               ; preds = %36
  %39 = load i64, ptr %37, align 8, !tbaa !111
  %40 = and i64 %39, 2147483648
  %.not2.i.i.i.i13 = icmp eq i64 %40, 0
  br i1 %.not2.i.i.i.i13, label %41, label %_ZN8pybind116detail8accessorINS0_17accessor_policies8str_attrEED2Ev.exit14

41:                                               ; preds = %38
  %42 = add nsw i64 %39, -1
  store i64 %42, ptr %37, align 8, !tbaa !111
  %43 = icmp eq i64 %42, 0
  br i1 %43, label %44, label %_ZN8pybind116detail8accessorINS0_17accessor_policies8str_attrEED2Ev.exit14

44:                                               ; preds = %41
  invoke void @_Py_Dealloc(ptr noundef nonnull %37)
          to label %_ZN8pybind116detail8accessorINS0_17accessor_policies8str_attrEED2Ev.exit14 unwind label %45

45:                                               ; preds = %44
  %46 = landingpad { ptr, i32 }
          catch ptr null
  %47 = extractvalue { ptr, i32 } %46, 0
  call void @__clang_call_terminate(ptr %47) #29
  unreachable

_ZN8pybind116detail8accessorINS0_17accessor_policies8str_attrEED2Ev.exit14: ; preds = %36, %38, %41, %44
  call void @llvm.lifetime.end.p0(i64 32, ptr nonnull %5) #28
  invoke void @_ZN6open3d4core3nns27pybind_core_nns_definitionsERN8pybind117module_E(ptr noundef nonnull align 8 dereferenceable(8) %4)
          to label %48 unwind label %77

48:                                               ; preds = %_ZN8pybind116detail8accessorINS0_17accessor_policies8str_attrEED2Ev.exit14
  %49 = load ptr, ptr %4, align 8, !tbaa !112
  %.not.i.i.i = icmp eq ptr %49, null
  br i1 %.not.i.i.i, label %_ZN8pybind116objectD2Ev.exit, label %50

50:                                               ; preds = %48
  %51 = load i64, ptr %49, align 8, !tbaa !111
  %52 = and i64 %51, 2147483648
  %.not2.i.i.i = icmp eq i64 %52, 0
  br i1 %.not2.i.i.i, label %53, label %_ZN8pybind116objectD2Ev.exit

53:                                               ; preds = %50
  %54 = add nsw i64 %51, -1
  store i64 %54, ptr %49, align 8, !tbaa !111
  %55 = icmp eq i64 %54, 0
  br i1 %55, label %56, label %_ZN8pybind116objectD2Ev.exit

56:                                               ; preds = %53
  invoke void @_Py_Dealloc(ptr noundef nonnull %49)
          to label %_ZN8pybind116objectD2Ev.exit unwind label %57

57:                                               ; preds = %56
  %58 = landingpad { ptr, i32 }
          catch ptr null
  %59 = extractvalue { ptr, i32 } %58, 0
  call void @__clang_call_terminate(ptr %59) #29
  unreachable

_ZN8pybind116objectD2Ev.exit:                     ; preds = %48, %50, %53, %56
  call void @llvm.lifetime.end.p0(i64 8, ptr nonnull %4) #28
  %60 = load ptr, ptr %2, align 8, !tbaa !112
  %.not.i.i.i15 = icmp eq ptr %60, null
  br i1 %.not.i.i.i15, label %_ZN8pybind116objectD2Ev.exit17, label %61

61:                                               ; preds = %_ZN8pybind116objectD2Ev.exit
  %62 = load i64, ptr %60, align 8, !tbaa !111
  %63 = and i64 %62, 2147483648
  %.not2.i.i.i16 = icmp eq i64 %63, 0
  br i1 %.not2.i.i.i16, label %64, label %_ZN8pybind116objectD2Ev.exit17

64:                                               ; preds = %61
  %65 = add nsw i64 %62, -1
  store i64 %65, ptr %60, align 8, !tbaa !111
  %66 = icmp eq i64 %65, 0
  br i1 %66, label %67, label %_ZN8pybind116objectD2Ev.exit17

67:                                               ; preds = %64
  invoke void @_Py_Dealloc(ptr noundef nonnull %60)
          to label %_ZN8pybind116objectD2Ev.exit17 unwind label %68

68:                                               ; preds = %67
  %69 = landingpad { ptr, i32 }
          catch ptr null
  %70 = extractvalue { ptr, i32 } %69, 0
  call void @__clang_call_terminate(ptr %70) #29
  unreachable

_ZN8pybind116objectD2Ev.exit17:                   ; preds = %_ZN8pybind116objectD2Ev.exit, %61, %64, %67
  call void @llvm.lifetime.end.p0(i64 8, ptr nonnull %2) #28
  ret void

71:                                               ; preds = %1
  %72 = landingpad { ptr, i32 }
          cleanup
  call void @_ZN8pybind116detail8accessorINS0_17accessor_policies8str_attrEED2Ev(ptr noundef nonnull align 8 dereferenceable(32) %3) #28
  call void @llvm.lifetime.end.p0(i64 32, ptr nonnull %3) #28
  br label %81

73:                                               ; preds = %31, %30, %29, %28, %27, %26, %25, %24, %23, %22, %21, %_ZN8pybind116detail8accessorINS0_17accessor_policies8str_attrEED2Ev.exit
  %74 = landingpad { ptr, i32 }
          cleanup
  br label %80

75:                                               ; preds = %32
  %76 = landingpad { ptr, i32 }
          cleanup
  call void @_ZN8pybind116detail8accessorINS0_17accessor_policies8str_attrEED2Ev(ptr noundef nonnull align 8 dereferenceable(32) %5) #28
  call void @llvm.lifetime.end.p0(i64 32, ptr nonnull %5) #28
  br label %79

77:                                               ; preds = %_ZN8pybind116detail8accessorINS0_17accessor_policies8str_attrEED2Ev.exit14
  %78 = landingpad { ptr, i32 }
          cleanup
  call void @_ZN8pybind116objectD2Ev(ptr noundef nonnull align 8 dereferenceable(8) %4) #28
  br label %79

79:                                               ; preds = %77, %75
  %.pn7 = phi { ptr, i32 } [ %78, %77 ], [ %76, %75 ]
  call void @llvm.lifetime.end.p0(i64 8, ptr nonnull %4) #28
  br label %80

80:                                               ; preds = %79, %73
  %.pn7.pn = phi { ptr, i32 } [ %.pn7, %79 ], [ %74, %73 ]
  call void @_ZN8pybind116objectD2Ev(ptr noundef nonnull align 8 dereferenceable(8) %2) #28
  br label %81

81:                                               ; preds = %80, %71
  %.pn7.pn.pn = phi { ptr, i32 } [ %.pn7.pn, %80 ], [ %72, %71 ]
  call void @llvm.lifetime.end.p0(i64 8, ptr nonnull %2) #28
  resume { ptr, i32 } %.pn7.pn.pn
}